(dp0
S'METTS MARK'
p1
(dp2
S'to_messages'
p3
F807.0
sS'deferral_payments'
p4
S'NaN'
p5
sS'poi_incoming'
p6
F0.04708798017348203
sS'total_wealth'
p7
I1646889
sS'expenses'
p8
I94299
sS'poi_interaction'
p9
F0.17380159616739566
sS'poi'
p10
I00
sS'deferred_income'
p11
I0
sS'email_address'
p12
S'mark.metts@enron.com'
p13
sS'long_term_incentive'
p14
I0
sS'restricted_stock_deferred'
p15
g5
sS'shared_receipt_with_poi'
p16
F702.0
sS'loan_advances'
p17
g5
sS'from_messages'
p18
F29.0
sS'other'
p19
I1740
sS'director_fees'
p20
g5
sS'poi_outgoing'
p21
F0.034482758620689655
sS'bonus'
p22
I600000
sS'total_stock_value'
p23
I585062
sS'from_poi_to_this_person'
p24
F38.0
sS'from_this_person_to_poi'
p25
F1.0
sS'restricted_stock'
p26
I585062
sS'salary'
p27
I365788
sS'total_payments'
p28
I1061827
sS'exercised_stock_options'
p29
I0
ssS'BAXTER JOHN C'
p30
(dp31
g3
F0.0
sg4
I1295738
sg6
F0.0
sg7
I16257601
sg8
I11200
sg9
F0.0
sg10
I00
sg11
I-1386055
sg12
g5
sg14
I1586055
sg15
g5
sg16
F0.0
sg17
g5
sg18
F0.0
sg19
I2660303
sg20
g5
sg21
F0.0
sg22
I1200000
sg23
I10623258
sg24
F0.0
sg25
F0.0
sg26
I3942714
sg27
I267102
sg28
I5634343
sg29
I6680544
ssS'ELLIOTT STEVEN'
p32
(dp33
g3
F0.0
sg4
g5
sg6
F0.0
sg7
I6890460
sg8
I78552
sg9
F0.0
sg10
I00
sg11
I-400729
sg12
S'steven.elliott@enron.com'
p34
sg14
I0
sg15
g5
sg16
F0.0
sg17
g5
sg18
F0.0
sg19
I12961
sg20
g5
sg21
F0.0
sg22
I350000
sg23
I6678735
sg24
F0.0
sg25
F0.0
sg26
I1788391
sg27
I170941
sg28
I211725
sg29
I4890344
ssS'CORDES WILLIAM R'
p35
(dp36
g3
F764.0
sg4
g5
sg6
F0.013089005235602094
sg7
I1038185
sg8
g5
sg9
F0.02339194117306554
sg10
I00
sg11
I0
sg12
S'bill.cordes@enron.com'
p37
sg14
I0
sg15
g5
sg16
F58.0
sg17
g5
sg18
F12.0
sg19
g5
sg20
g5
sg21
F0.0
sg22
I0
sg23
I1038185
sg24
F10.0
sg25
F0.0
sg26
I386335
sg27
I0
sg28
I0
sg29
I651850
ssS'HANNON KEVIN P'
p38
(dp39
g3
F1045.0
sg4
g5
sg6
F0.03062200956937799
sg7
I6679747
sg8
I34039
sg9
F0.23667680942033262
sg10
I01
sg11
I-3117011
sg12
S'kevin.hannon@enron.com'
p40
sg14
I1617011
sg15
g5
sg16
F1035.0
sg17
g5
sg18
F32.0
sg19
I11350
sg20
g5
sg21
F0.65625
sg22
I1500000
sg23
I6391065
sg24
F32.0
sg25
F21.0
sg26
I853064
sg27
I243293
sg28
I288682
sg29
I5538001
ssS'MORDAUNT KRISTINA M'
p41
(dp42
g3
F0.0
sg4
g5
sg6
F0.0
sg7
I837032
sg8
I35018
sg9
F0.0
sg10
I00
sg11
I0
sg12
S'kristina.mordaunt@enron.com'
p43
sg14
I0
sg15
g5
sg16
F0.0
sg17
g5
sg18
F0.0
sg19
I1411
sg20
g5
sg21
F0.0
sg22
I325000
sg23
I208510
sg24
F0.0
sg25
F0.0
sg26
I208510
sg27
I267093
sg28
I628522
sg29
I0
ssS'MEYER ROCKFORD G'
p44
(dp45
g3
F232.0
sg4
I1848227
sg6
F0.0
sg7
I2804100
sg8
g5
sg9
F0.003984785364970114
sg10
I00
sg11
I0
sg12
S'rockford.meyer@enron.com'
p46
sg14
I0
sg15
g5
sg16
F22.0
sg17
g5
sg18
F28.0
sg19
g5
sg20
g5
sg21
F0.0
sg22
I0
sg23
I955873
sg24
F0.0
sg25
F0.0
sg26
I462384
sg27
I0
sg28
I1848227
sg29
I493489
ssS'MCMAHON JEFFREY'
p47
(dp48
g3
F2355.0
sg4
g5
sg6
F0.024628450106157114
sg7
I5762626
sg8
I137108
sg9
F0.4385063861261993
sg10
I00
sg11
I0
sg12
S'jeffrey.mcmahon@enron.com'
p49
sg14
I694862
sg15
g5
sg16
F2228.0
sg17
g5
sg18
F48.0
sg19
I297353
sg20
g5
sg21
F0.5416666666666666
sg22
I2600000
sg23
I1662855
sg24
F58.0
sg25
F26.0
sg26
I558801
sg27
I370448
sg28
I4099771
sg29
I1104054
ssS'HORTON STANLEY C'
p50
(dp51
g3
F2350.0
sg4
I3131860
sg6
F0.01872340425531915
sg7
I10388508
sg8
g5
sg9
F0.21176631884325764
sg10
I00
sg11
I0
sg12
S'stanley.horton@enron.com'
p52
sg14
I0
sg15
g5
sg16
F1074.0
sg17
g5
sg18
F1073.0
sg19
g5
sg20
g5
sg21
F0.013979496738117428
sg22
I0
sg23
I7256648
sg24
F44.0
sg25
F15.0
sg26
I2046079
sg27
I0
sg28
I3131860
sg29
I5210569
ssS'PIPER GREGORY F'
p53
(dp54
g3
F1238.0
sg4
I1130036
sg6
F0.049273021001615507
sg7
I2617919
sg8
I43057
sg9
F0.20905347701056737
sg10
I00
sg11
I-33333
sg12
S'greg.piper@enron.com'
p55
sg14
I0
sg15
I-409554
sg16
F742.0
sg17
g5
sg18
F222.0
sg19
I778
sg20
g5
sg21
F0.21621621621621623
sg22
I400000
sg23
I880290
sg24
F61.0
sg25
F48.0
sg26
I409554
sg27
I197091
sg28
I1737629
sg29
I880290
ssS'HUMPHREY GENE E'
p56
(dp57
g3
F128.0
sg4
I2964506
sg6
F0.078125
sg7
I5382992
sg8
I4994
sg9
F0.20776096284406248
sg10
I00
sg11
I0
sg12
S'gene.humphrey@enron.com'
p58
sg14
I0
sg15
g5
sg16
F119.0
sg17
g5
sg18
F17.0
sg19
g5
sg20
g5
sg21
F1.0
sg22
I0
sg23
I2282768
sg24
F10.0
sg25
F17.0
sg26
I0
sg27
I130724
sg28
I3100224
sg29
I2282768
ssS'UMANOFF ADAM S'
p59
(dp60
g3
F111.0
sg4
g5
sg6
F0.10810810810810811
sg7
I1130461
sg8
I53122
sg9
F0.10044944672139779
sg10
I00
sg11
I0
sg12
S'adam.umanoff@enron.com'
p61
sg14
I0
sg15
g5
sg16
F41.0
sg17
g5
sg18
F18.0
sg19
g5
sg20
g5
sg21
F0.0
sg22
I788750
sg23
I0
sg24
F12.0
sg25
F0.0
sg26
I0
sg27
I288589
sg28
I1130461
sg29
I0
ssS'BLACHMAN JEREMY M'
p62
(dp63
g3
F2475.0
sg4
g5
sg6
F0.010101010101010102
sg7
I2969189
sg8
I84208
sg9
F0.4321482190538933
sg10
I00
sg11
I0
sg12
S'jeremy.blachman@enron.com'
p64
sg14
I831809
sg15
g5
sg16
F2326.0
sg17
g5
sg18
F14.0
sg19
I272
sg20
g5
sg21
F0.14285714285714285
sg22
I850000
sg23
I954354
sg24
F25.0
sg25
F2.0
sg26
I189041
sg27
I248546
sg28
I2014835
sg29
I765313
ssS'SUNDE MARTIN'
p65
(dp66
g3
F2647.0
sg4
g5
sg6
F0.013978088401964487
sg7
I2243979
sg8
g5
sg9
F0.48321172216325203
sg10
I00
sg11
I0
sg12
S'marty.sunde@enron.com'
p67
sg14
I476451
sg15
g5
sg16
F2565.0
sg17
g5
sg18
F38.0
sg19
I111122
sg20
g5
sg21
F0.34210526315789475
sg22
I700000
sg23
I698920
sg24
F37.0
sg25
F13.0
sg26
I698920
sg27
I257486
sg28
I1545059
sg29
I0
ssS'GIBBS DANA R'
p68
(dp69
g3
F169.0
sg4
I504610
sg6
F0.0
sg7
I3184797
sg8
g5
sg9
F0.004165911972468755
sg10
I00
sg11
I0
sg12
S'dana.gibbs@enron.com'
p70
sg14
I461912
sg15
g5
sg16
F23.0
sg17
g5
sg18
F12.0
sg19
g5
sg20
g5
sg21
F0.0
sg22
I0
sg23
I2218275
sg24
F0.0
sg25
F0.0
sg26
I0
sg27
I0
sg28
I966522
sg29
I2218275
ssS'LOWRY CHARLES P'
p71
(dp72
g3
F0.0
sg4
g5
sg6
F0.0
sg7
I372205
sg8
g5
sg9
F0.0
sg10
I00
sg11
I0
sg12
g5
sg14
I0
sg15
I-153686
sg16
F0.0
sg17
g5
sg18
F0.0
sg19
g5
sg20
g5
sg21
F0.0
sg22
I0
sg23
I372205
sg24
F0.0
sg25
F0.0
sg26
I153686
sg27
I0
sg28
I0
sg29
I372205
ssS'COLWELL WESLEY'
p73
(dp74
g3
F1758.0
sg4
I27610
sg6
F0.13651877133105803
sg7
I2188586
sg8
I16514
sg9
F0.3446348747496413
sg10
I01
sg11
I-144062
sg12
S'wes.colwell@enron.com'
p75
sg14
I0
sg15
g5
sg16
F1132.0
sg17
g5
sg18
F40.0
sg19
I101740
sg20
g5
sg21
F0.275
sg22
I1200000
sg23
I698242
sg24
F240.0
sg25
F11.0
sg26
I698242
sg27
I288542
sg28
I1490344
sg29
I0
ssS'MULLER MARK S'
p76
(dp77
g3
F136.0
sg4
I842924
sg6
F0.08823529411764706
sg7
I4618918
sg8
g5
sg9
F0.09959580167589777
sg10
I00
sg11
I-719000
sg12
S's..muller@enron.com'
p78
sg14
I1725545
sg15
g5
sg16
F114.0
sg17
g5
sg18
F16.0
sg19
I947
sg20
g5
sg21
F0.0
sg22
I1100000
sg23
I1416848
sg24
F12.0
sg25
F0.0
sg26
I360528
sg27
I251654
sg28
I3202070
sg29
I1056320
ssS'JACKSON CHARLENE R'
p79
(dp80
g3
F258.0
sg4
g5
sg6
F0.09689922480620156
sg7
I1276909
sg8
I10181
sg9
F0.1613192016123729
sg10
I00
sg11
I0
sg12
S'charlene.jackson@enron.com'
p81
sg14
I0
sg15
g5
sg16
F117.0
sg17
g5
sg18
F56.0
sg19
I2435
sg20
g5
sg21
F0.3392857142857143
sg22
I250000
sg23
I725735
sg24
F25.0
sg25
F19.0
sg26
I540672
sg27
I288558
sg28
I551174
sg29
I185063
ssS'WESTFAHL RICHARD K'
p82
(dp83
g3
F0.0
sg4
g5
sg6
F0.0
sg7
I1147065
sg8
I51870
sg9
F0.0
sg10
I00
sg11
I-10800
sg12
S'dick.westfahl@enron.com'
p84
sg14
I256191
sg15
g5
sg16
F0.0
sg17
g5
sg18
F0.0
sg19
I401130
sg20
g5
sg21
F0.0
sg22
I0
sg23
I384930
sg24
F0.0
sg25
F0.0
sg26
I384930
sg27
I63744
sg28
I762135
sg29
I0
ssS'WALTERS GARETH W'
p85
(dp86
g3
F0.0
sg4
I53625
sg6
F0.0
sg7
I1117739
sg8
I33785
sg9
F0.0
sg10
I00
sg11
I0
sg12
g5
sg14
I0
sg15
g5
sg16
F0.0
sg17
g5
sg18
F0.0
sg19
g5
sg20
g5
sg21
F0.0
sg22
I0
sg23
I1030329
sg24
F0.0
sg25
F0.0
sg26
I0
sg27
I0
sg28
I87410
sg29
I1030329
ssS'WALLS JR ROBERT H'
p87
(dp88
g3
F671.0
sg4
g5
sg6
F0.02533532041728763
sg7
I7697777
sg8
I50936
sg9
F0.05975005414953964
sg10
I00
sg11
I0
sg12
S'rob.walls@enron.com'
p89
sg14
I540751
sg15
g5
sg16
F215.0
sg17
g5
sg18
F146.0
sg19
I2
sg20
g5
sg21
F0.0
sg22
I850000
sg23
I5898997
sg24
F17.0
sg25
F0.0
sg26
I1552453
sg27
I357091
sg28
I1798780
sg29
I4346544
ssS'KITCHEN LOUISE'
p90
(dp91
g3
F8305.0
sg4
g5
sg6
F0.030222757375075255
sg7
I4018284
sg8
I5774
sg9
F0.7089071559235794
sg10
I00
sg11
I0
sg12
S'louise.kitchen@enron.com'
p92
sg14
I0
sg15
g5
sg16
F3669.0
sg17
g5
sg18
F1728.0
sg19
I93925
sg20
g5
sg21
F0.11226851851851852
sg22
I3100000
sg23
I547143
sg24
F251.0
sg25
F194.0
sg26
I466101
sg27
I271442
sg28
I3471141
sg29
I81042
ssS'CHAN RONNIE'
p93
(dp94
g3
F0.0
sg4
g5
sg6
F0.0
sg7
I0
sg8
g5
sg9
F0.0
sg10
I00
sg11
I-98784
sg12
g5
sg14
I0
sg15
I-32460
sg16
F0.0
sg17
g5
sg18
F0.0
sg19
g5
sg20
I98784
sg21
F0.0
sg22
I0
sg23
I0
sg24
F0.0
sg25
F0.0
sg26
I32460
sg27
I0
sg28
I0
sg29
I0
ssS'BELFER ROBERT'
p95
(dp96
g3
F0.0
sg4
I-102500
sg6
F0.0
sg7
I58407
sg8
g5
sg9
F0.0
sg10
I00
sg11
I0
sg12
g5
sg14
I0
sg15
I44093
sg16
F0.0
sg17
g5
sg18
F0.0
sg19
g5
sg20
I3285
sg21
F0.0
sg22
I0
sg23
I-44093
sg24
F0.0
sg25
F0.0
sg26
I0
sg27
I0
sg28
I102500
sg29
I3285
ssS'SHANKMAN JEFFREY A'
p97
(dp98
g3
F3221.0
sg4
g5
sg6
F0.029183483390251473
sg7
I5110737
sg8
I178979
sg9
F0.3433388649272415
sg10
I00
sg11
I0
sg12
S'jeffrey.shankman@enron.com'
p99
sg14
I554422
sg15
g5
sg16
F1730.0
sg17
g5
sg18
F2681.0
sg19
I1191
sg20
g5
sg21
F0.030958597538232
sg22
I2000000
sg23
I2072035
sg24
F94.0
sg25
F83.0
sg26
I630137
sg27
I304110
sg28
I3038702
sg29
I1441898
ssS'WODRASKA JOHN'
p100
(dp101
g3
F0.0
sg4
g5
sg6
F0.0
sg7
I189583
sg8
g5
sg9
F0.0
sg10
I00
sg11
I0
sg12
S'john.wodraska@enron.com'
p102
sg14
I0
sg15
g5
sg16
F0.0
sg17
g5
sg18
F0.0
sg19
I189583
sg20
g5
sg21
F0.0
sg22
I0
sg23
I0
sg24
F0.0
sg25
F0.0
sg26
I0
sg27
I0
sg28
I189583
sg29
I0
ssS'BERGSIEKER RICHARD P'
p103
(dp104
g3
F383.0
sg4
g5
sg6
F0.010443864229765013
sg7
I1278099
sg8
I59175
sg9
F0.051252273302839595
sg10
I00
sg11
I-485813
sg12
S'rick.bergsieker@enron.com'
p105
sg14
I180250
sg15
g5
sg16
F233.0
sg17
g5
sg18
F59.0
sg19
I427316
sg20
g5
sg21
F0.0
sg22
I250000
sg23
I659249
sg24
F4.0
sg25
F0.0
sg26
I659249
sg27
I187922
sg28
I618850
sg29
I0
ssS'URQUHART JOHN A'
p106
(dp107
g3
F0.0
sg4
g5
sg6
F0.0
sg7
I228656
sg8
I228656
sg9
F0.0
sg10
I00
sg11
I-36666
sg12
g5
sg14
I0
sg15
g5
sg16
F0.0
sg17
g5
sg18
F0.0
sg19
g5
sg20
I36666
sg21
F0.0
sg22
I0
sg23
I0
sg24
F0.0
sg25
F0.0
sg26
I0
sg27
I0
sg28
I228656
sg29
I0
ssS'BIBI PHILIPPE A'
p108
(dp109
g3
F1607.0
sg4
g5
sg6
F0.01431238332296204
sg7
I3891409
sg8
I38559
sg9
F0.260807248407499
sg10
I00
sg11
I0
sg12
S'philippe.bibi@enron.com'
p110
sg14
I369721
sg15
g5
sg16
F1336.0
sg17
g5
sg18
F40.0
sg19
I425688
sg20
g5
sg21
F0.2
sg22
I1000000
sg23
I1843816
sg24
F23.0
sg25
F8.0
sg26
I378082
sg27
I213625
sg28
I2047593
sg29
I1465734
ssS'RIEKER PAULA H'
p111
(dp112
g3
F1328.0
sg4
I214678
sg6
F0.02635542168674699
sg7
I3017987
sg8
I33271
sg9
F0.28672252046024144
sg10
I01
sg11
I-100000
sg12
S'paula.rieker@enron.com'
p113
sg14
I0
sg15
g5
sg16
F1258.0
sg17
g5
sg18
F82.0
sg19
I1950
sg20
g5
sg21
F0.5853658536585366
sg22
I700000
sg23
I1918887
sg24
F35.0
sg25
F48.0
sg26
I283649
sg27
I249201
sg28
I1099100
sg29
I1635238
ssS'WHALEY DAVID A'
p114
(dp115
g3
F0.0
sg4
g5
sg6
F0.0
sg7
I98718
sg8
g5
sg9
F0.0
sg10
I00
sg11
I0
sg12
g5
sg14
I0
sg15
g5
sg16
F0.0
sg17
g5
sg18
F0.0
sg19
g5
sg20
g5
sg21
F0.0
sg22
I0
sg23
I98718
sg24
F0.0
sg25
F0.0
sg26
I0
sg27
I0
sg28
I0
sg29
I98718
ssS'BECK SALLY W'
p116
(dp117
g3
F7315.0
sg4
g5
sg6
F0.01968557758031442
sg7
I1095095
sg8
I37172
sg9
F0.5234554606440531
sg10
I00
sg11
I0
sg12
S'sally.beck@enron.com'
p118
sg14
I0
sg15
g5
sg16
F2639.0
sg17
g5
sg18
F4343.0
sg19
I566
sg20
g5
sg21
F0.08887865530739121
sg22
I700000
sg23
I126027
sg24
F144.0
sg25
F386.0
sg26
I126027
sg27
I231330
sg28
I969068
sg29
I0
ssS'HAUG DAVID L'
p119
(dp120
g3
F573.0
sg4
g5
sg6
F0.006980802792321117
sg7
I2217774
sg8
I475
sg9
F0.10389171321294126
sg10
I00
sg11
I0
sg12
S'david.haug@enron.com'
p121
sg14
I0
sg15
g5
sg16
F471.0
sg17
g5
sg18
F19.0
sg19
g5
sg20
g5
sg21
F0.3684210526315789
sg22
I0
sg23
I2217299
sg24
F4.0
sg25
F7.0
sg26
I2217299
sg27
I0
sg28
I475
sg29
I0
ssS'ECHOLS JOHN B'
p122
(dp123
g3
F0.0
sg4
g5
sg6
F0.0
sg7
I3701265
sg8
I21530
sg9
F0.0
sg10
I00
sg11
I0
sg12
S'john.echols@enron.com'
p124
sg14
I2234774
sg15
g5
sg16
F0.0
sg17
g5
sg18
F0.0
sg19
I53775
sg20
g5
sg21
F0.0
sg22
I200000
sg23
I1008941
sg24
F0.0
sg25
F0.0
sg26
I407503
sg27
I182245
sg28
I2692324
sg29
I601438
ssS'MENDELSOHN JOHN'
p125
(dp126
g3
F0.0
sg4
g5
sg6
F0.0
sg7
I148
sg8
I148
sg9
F0.0
sg10
I00
sg11
I-103750
sg12
g5
sg14
I0
sg15
g5
sg16
F0.0
sg17
g5
sg18
F0.0
sg19
g5
sg20
I103750
sg21
F0.0
sg22
I0
sg23
I0
sg24
F0.0
sg25
F0.0
sg26
I0
sg27
I0
sg28
I148
sg29
I0
ssS'HICKERSON GARY J'
p127
(dp128
g3
F1320.0
sg4
g5
sg6
F0.030303030303030304
sg7
I2522892
sg8
I98849
sg9
F0.19345195714224436
sg10
I00
sg11
I0
sg12
S'gary.hickerson@enron.com'
p129
sg14
I69223
sg15
g5
sg16
F900.0
sg17
g5
sg18
F27.0
sg19
I1936
sg20
g5
sg21
F0.037037037037037035
sg22
I1700000
sg23
I441096
sg24
F40.0
sg25
F1.0
sg26
I441096
sg27
I211788
sg28
I2081796
sg29
I0
ssS'CLINE KENNETH W'
p130
(dp131
g3
F0.0
sg4
g5
sg6
F0.0
sg7
I189518
sg8
g5
sg9
F0.0
sg10
I00
sg11
I0
sg12
g5
sg14
I0
sg15
I-472568
sg16
F0.0
sg17
g5
sg18
F0.0
sg19
g5
sg20
g5
sg21
F0.0
sg22
I0
sg23
I189518
sg24
F0.0
sg25
F0.0
sg26
I662086
sg27
I0
sg28
I0
sg29
I0
ssS'LEWIS RICHARD'
p132
(dp133
g3
F952.0
sg4
g5
sg6
F0.01050420168067227
sg7
I850477
sg8
g5
sg9
F0.14407751181675174
sg10
I00
sg11
I0
sg12
S'richard.lewis@enron.com'
p134
sg14
I0
sg15
g5
sg16
F739.0
sg17
g5
sg18
F26.0
sg19
g5
sg20
g5
sg21
F0.0
sg22
I0
sg23
I850477
sg24
F10.0
sg25
F0.0
sg26
I0
sg27
I0
sg28
I0
sg29
I850477
ssS'HAYES ROBERT E'
p135
(dp136
g3
F504.0
sg4
I7961
sg6
F0.031746031746031744
sg7
I159379
sg8
g5
sg9
F0.040064082312916575
sg10
I00
sg11
I0
sg12
S'robert.hayes@enron.com'
p137
sg14
I0
sg15
g5
sg16
F50.0
sg17
g5
sg18
F12.0
sg19
g5
sg20
g5
sg21
F0.0
sg22
I0
sg23
I151418
sg24
F16.0
sg25
F0.0
sg26
I151418
sg27
I0
sg28
I7961
sg29
I0
ssS'MCCARTY DANNY J'
p138
(dp139
g3
F1433.0
sg4
g5
sg6
F0.017445917655268667
sg7
I758931
sg8
g5
sg9
F0.10839581175494098
sg10
I00
sg11
I0
sg12
S'danny.mccarty@enron.com'
p140
sg14
I0
sg15
g5
sg16
F508.0
sg17
g5
sg18
F215.0
sg19
g5
sg20
g5
sg21
F0.009302325581395349
sg22
I0
sg23
I758931
sg24
F25.0
sg25
F2.0
sg26
I94556
sg27
I0
sg28
I0
sg29
I664375
ssS'KOPPER MICHAEL J'
p141
(dp142
g3
F0.0
sg4
g5
sg6
F0.0
sg7
I3637644
sg8
I118134
sg9
F0.0
sg10
I01
sg11
I0
sg12
S'michael.kopper@enron.com'
p143
sg14
I602671
sg15
g5
sg16
F0.0
sg17
g5
sg18
F0.0
sg19
I907502
sg20
g5
sg21
F0.0
sg22
I800000
sg23
I985032
sg24
F0.0
sg25
F0.0
sg26
I985032
sg27
I224305
sg28
I2652612
sg29
I0
ssS'LEFF DANIEL P'
p144
(dp145
g3
F2822.0
sg4
g5
sg6
F0.02374202693125443
sg7
I3024756
sg8
g5
sg9
F0.5120465517355036
sg10
I00
sg11
I0
sg12
S'dan.leff@enron.com'
p146
sg14
I1387399
sg15
g5
sg16
F2672.0
sg17
g5
sg18
F63.0
sg19
I3083
sg20
g5
sg21
F0.2222222222222222
sg22
I1000000
sg23
I360528
sg24
F67.0
sg25
F14.0
sg26
I360528
sg27
I273746
sg28
I2664228
sg29
I0
ssS'LAVORATO JOHN J'
p147
(dp148
g3
F7259.0
sg4
g5
sg6
F0.07273729163796666
sg7
I15592901
sg8
I49537
sg9
F0.8130116725463509
sg10
I00
sg11
I0
sg12
S'john.lavorato@enron.com'
p149
sg14
I2035380
sg15
g5
sg16
F3962.0
sg17
g5
sg18
F2585.0
sg19
I1552
sg20
g5
sg21
F0.15899419729206962
sg22
I8000000
sg23
I5167144
sg24
F528.0
sg25
F411.0
sg26
I1008149
sg27
I339288
sg28
I10425757
sg29
I4158995
ssS'BERBERIAN DAVID'
p150
(dp151
g3
F0.0
sg4
g5
sg6
F0.0
sg7
I2722090
sg8
I11892
sg9
F0.0
sg10
I00
sg11
I0
sg12
S'david.berberian@enron.com'
p152
sg14
I0
sg15
g5
sg16
F0.0
sg17
g5
sg18
F0.0
sg19
g5
sg20
g5
sg21
F0.0
sg22
I0
sg23
I2493616
sg24
F0.0
sg25
F0.0
sg26
I869220
sg27
I216582
sg28
I228474
sg29
I1624396
ssS'DETMERING TIMOTHY J'
p153
(dp154
g3
F0.0
sg4
I875307
sg6
F0.0
sg7
I3232448
sg8
I52255
sg9
F0.0
sg10
I00
sg11
I-775241
sg12
S'timothy.detmering@enron.com'
p155
sg14
I415657
sg15
I-315068
sg16
F0.0
sg17
g5
sg18
F0.0
sg19
I1105
sg20
g5
sg21
F0.0
sg22
I425000
sg23
I2027865
sg24
F0.0
sg25
F0.0
sg26
I315068
sg27
I210500
sg28
I1204583
sg29
I2027865
ssS'WAKEHAM JOHN'
p156
(dp157
g3
F0.0
sg4
g5
sg6
F0.0
sg7
I213071
sg8
I103773
sg9
F0.0
sg10
I00
sg11
I0
sg12
g5
sg14
I0
sg15
g5
sg16
F0.0
sg17
g5
sg18
F0.0
sg19
g5
sg20
I109298
sg21
F0.0
sg22
I0
sg23
I0
sg24
F0.0
sg25
F0.0
sg26
I0
sg27
I0
sg28
I213071
sg29
I0
ssS'POWERS WILLIAM'
p158
(dp159
g3
F653.0
sg4
g5
sg6
F0.0
sg7
I0
sg8
g5
sg9
F0.0021735192899836986
sg10
I00
sg11
I-17500
sg12
S'ken.powers@enron.com'
p160
sg14
I0
sg15
g5
sg16
F12.0
sg17
g5
sg18
F26.0
sg19
g5
sg20
I17500
sg21
F0.0
sg22
I0
sg23
I0
sg24
F0.0
sg25
F0.0
sg26
I0
sg27
I0
sg28
I0
sg29
I0
ssS'GOLD JOSEPH'
p161
(dp162
g3
F0.0
sg4
g5
sg6
F0.0
sg7
I3024584
sg8
g5
sg9
F0.0
sg10
I00
sg11
I0
sg12
S'joe.gold@enron.com'
p163
sg14
I304805
sg15
g5
sg16
F0.0
sg17
g5
sg18
F0.0
sg19
I819288
sg20
g5
sg21
F0.0
sg22
I750000
sg23
I877611
sg24
F0.0
sg25
F0.0
sg26
I441096
sg27
I272880
sg28
I2146973
sg29
I436515
ssS'BANNANTINE JAMES M'
p164
(dp165
g3
F566.0
sg4
g5
sg6
F0.06890459363957598
sg7
I6159684
sg8
I56301
sg9
F0.14977009097426328
sg10
I00
sg11
I-5104
sg12
S'james.bannantine@enron.com'
p166
sg14
I0
sg15
I-560222
sg16
F465.0
sg17
g5
sg18
F29.0
sg19
I864523
sg20
g5
sg21
F0.0
sg22
I0
sg23
I5243487
sg24
F39.0
sg25
F0.0
sg26
I1757552
sg27
I477
sg28
I916197
sg29
I4046157
ssS'DUNCAN JOHN H'
p167
(dp168
g3
F0.0
sg4
g5
sg6
F0.0
sg7
I449242
sg8
g5
sg9
F0.0
sg10
I00
sg11
I-25000
sg12
g5
sg14
I0
sg15
g5
sg16
F0.0
sg17
g5
sg18
F0.0
sg19
g5
sg20
I102492
sg21
F0.0
sg22
I0
sg23
I371750
sg24
F0.0
sg25
F0.0
sg26
I0
sg27
I0
sg28
I77492
sg29
I371750
ssS'SHAPIRO RICHARD S'
p169
(dp170
g3
F15149.0
sg4
g5
sg6
F0.0048848108786058485
sg7
I2044549
sg8
I137767
sg9
F0.8284544078295574
sg10
I00
sg11
I0
sg12
S'richard.shapiro@enron.com'
p171
sg14
I0
sg15
g5
sg16
F4527.0
sg17
g5
sg18
F1215.0
sg19
I705
sg20
g5
sg21
F0.053497942386831275
sg22
I650000
sg23
I987001
sg24
F74.0
sg25
F65.0
sg26
I379164
sg27
I269076
sg28
I1057548
sg29
I607837
ssS'SHERRIFF JOHN R'
p172
(dp173
g3
F3187.0
sg4
g5
sg6
F0.008785691873235017
sg7
I7464370
sg8
g5
sg9
F0.3964627779850137
sg10
I00
sg11
I0
sg12
S'john.sherriff@enron.com'
p174
sg14
I554422
sg15
g5
sg16
F2103.0
sg17
g5
sg18
F92.0
sg19
I1852186
sg20
g5
sg21
F0.25
sg22
I1500000
sg23
I3128982
sg24
F28.0
sg25
F23.0
sg26
I1293424
sg27
I428780
sg28
I4335388
sg29
I1835558
ssS'SHELBY REX'
p175
(dp176
g3
F225.0
sg4
g5
sg6
F0.057777777777777775
sg7
I4497501
sg8
I22884
sg9
F0.11875524855510367
sg10
I01
sg11
I-4167
sg12
S'rex.shelby@enron.com'
p177
sg14
I0
sg15
g5
sg16
F91.0
sg17
g5
sg18
F39.0
sg19
I1573324
sg20
g5
sg21
F0.358974358974359
sg22
I200000
sg23
I2493616
sg24
F13.0
sg25
F14.0
sg26
I869220
sg27
I211844
sg28
I2003885
sg29
I1624396
ssS'LEMAISTRE CHARLES'
p178
(dp179
g3
F0.0
sg4
g5
sg6
F0.0
sg7
I500370
sg8
g5
sg9
F0.0
sg10
I00
sg11
I-25000
sg12
g5
sg14
I0
sg15
g5
sg16
F0.0
sg17
g5
sg18
F0.0
sg19
g5
sg20
I112492
sg21
F0.0
sg22
I0
sg23
I412878
sg24
F0.0
sg25
F0.0
sg26
I0
sg27
I0
sg28
I87492
sg29
I412878
ssS'DEFFNER JOSEPH M'
p180
(dp181
g3
F714.0
sg4
g5
sg6
F0.16106442577030813
sg7
I1367860
sg8
I41626
sg9
F0.2509971157656461
sg10
I00
sg11
I0
sg12
S'joseph.deffner@enron.com'
p182
sg14
I335349
sg15
g5
sg16
F552.0
sg17
g5
sg18
F74.0
sg19
I25553
sg20
g5
sg21
F0.05405405405405406
sg22
I600000
sg23
I159211
sg24
F115.0
sg25
F4.0
sg26
I141833
sg27
I206121
sg28
I1208649
sg29
I17378
ssS'KISHKILL JOSEPH G'
p183
(dp184
g3
F0.0
sg4
g5
sg6
F0.0
sg7
I1739242
sg8
I116335
sg9
F0.0
sg10
I00
sg11
I-51042
sg12
S'joe.kishkill@enron.com'
p185
sg14
I0
sg15
g5
sg16
F0.0
sg17
g5
sg18
F0.0
sg19
I465357
sg20
g5
sg21
F0.0
sg22
I0
sg23
I1034346
sg24
F0.0
sg25
F0.0
sg26
I1034346
sg27
I174246
sg28
I704896
sg29
I0
ssS'WHALLEY LAWRENCE G'
p186
(dp187
g3
F6019.0
sg4
g5
sg6
F0.03090214321315833
sg7
I10756711
sg8
I57838
sg9
F0.7419554648927738
sg10
I00
sg11
I0
sg12
S'greg.whalley@enron.com'
p188
sg14
I808346
sg15
g5
sg16
F3920.0
sg17
g5
sg18
F556.0
sg19
I301026
sg20
g5
sg21
F0.04316546762589928
sg22
I3000000
sg23
I6079137
sg24
F186.0
sg25
F24.0
sg26
I2796177
sg27
I510364
sg28
I4677574
sg29
I3282960
ssS'MCCONNELL MICHAEL S'
p189
(dp190
g3
F3329.0
sg4
g5
sg6
F0.02763592670471613
sg7
I5202643
sg8
I81364
sg9
F0.4435953515233058
sg10
I00
sg11
I0
sg12
S'mike.mcconnell@enron.com'
p191
sg14
I554422
sg15
g5
sg16
F2189.0
sg17
g5
sg18
F2742.0
sg19
I540
sg20
g5
sg21
F0.07075127644055434
sg22
I1100000
sg23
I3101279
sg24
F92.0
sg25
F194.0
sg26
I1478269
sg27
I365038
sg28
I2101364
sg29
I1623010
ssS'PIRO JIM'
p192
(dp193
g3
F58.0
sg4
g5
sg6
F0.0
sg7
I47304
sg8
g5
sg9
F0.014056893336009438
sg10
I00
sg11
I0
sg12
S'jim.piro@enron.com'
p194
sg14
I0
sg15
g5
sg16
F3.0
sg17
g5
sg18
F16.0
sg19
g5
sg20
g5
sg21
F0.0625
sg22
I0
sg23
I47304
sg24
F0.0
sg25
F1.0
sg26
I47304
sg27
I0
sg28
I0
sg29
I0
ssS'DELAINEY DAVID W'
p195
(dp196
g3
F3093.0
sg4
g5
sg6
F0.02133850630455868
sg7
I8362240
sg8
I86174
sg9
F0.48936485230245075
sg10
I01
sg11
I0
sg12
S'david.delainey@enron.com'
p197
sg14
I1294981
sg15
g5
sg16
F2097.0
sg17
g5
sg18
F3069.0
sg19
I1661
sg20
g5
sg21
F0.198435972629521
sg22
I3000000
sg23
I3614261
sg24
F66.0
sg25
F609.0
sg26
I1323148
sg27
I365163
sg28
I4747979
sg29
I2291113
ssS'SULLIVAN-SHAKLOVITZ COLLEEN'
p198
(dp199
g3
F0.0
sg4
I181993
sg6
F0.0
sg7
I2361731
sg8
g5
sg9
F0.0
sg10
I00
sg11
I0
sg12
g5
sg14
I554422
sg15
g5
sg16
F0.0
sg17
g5
sg18
F0.0
sg19
I162
sg20
g5
sg21
F0.0
sg22
I100000
sg23
I1362375
sg24
F0.0
sg25
F0.0
sg26
I0
sg27
I162779
sg28
I999356
sg29
I1362375
ssS'WROBEL BRUCE'
p200
(dp201
g3
F0.0
sg4
g5
sg6
F0.0
sg7
I139130
sg8
g5
sg9
F0.0
sg10
I00
sg11
I0
sg12
g5
sg14
I0
sg15
g5
sg16
F0.0
sg17
g5
sg18
F0.0
sg19
g5
sg20
g5
sg21
F0.0
sg22
I0
sg23
I139130
sg24
F0.0
sg25
F0.0
sg26
I0
sg27
I0
sg28
I0
sg29
I139130
ssS'LINDHOLM TOD A'
p202
(dp203
g3
F0.0
sg4
I204075
sg6
F0.0
sg7
I3940097
sg8
I57727
sg9
F0.0
sg10
I00
sg11
I0
sg12
S'tod.lindholm@enron.com'
p204
sg14
I175000
sg15
g5
sg16
F0.0
sg17
g5
sg18
F0.0
sg19
I2630
sg20
g5
sg21
F0.0
sg22
I200000
sg23
I3064208
sg24
F0.0
sg25
F0.0
sg26
I514847
sg27
I236457
sg28
I875889
sg29
I2549361
ssS'MEYER JEROME J'
p205
(dp206
g3
F0.0
sg4
g5
sg6
F0.0
sg7
I2151
sg8
I2151
sg9
F0.0
sg10
I00
sg11
I-38346
sg12
g5
sg14
I0
sg15
g5
sg16
F0.0
sg17
g5
sg18
F0.0
sg19
g5
sg20
I38346
sg21
F0.0
sg22
I0
sg23
I0
sg24
F0.0
sg25
F0.0
sg26
I0
sg27
I0
sg28
I2151
sg29
I0
ssS'LAY KENNETH L'
p207
(dp208
g3
F4273.0
sg4
I202911
sg6
F0.028785396676807865
sg7
I152669871
sg8
I99832
sg9
F0.4689543151953538
sg10
I01
sg11
I-300000
sg12
S'kenneth.lay@enron.com'
p209
sg14
I3600000
sg15
g5
sg16
F2411.0
sg17
I81525000
sg18
F36.0
sg19
I10359729
sg20
g5
sg21
F0.4444444444444444
sg22
I7000000
sg23
I49110078
sg24
F123.0
sg25
F16.0
sg26
I14761694
sg27
I1072321
sg28
I103559793
sg29
I34348384
ssS'BUTTS ROBERT H'
p210
(dp211
g3
F0.0
sg4
g5
sg6
F0.0
sg7
I1689201
sg8
I9410
sg9
F0.0
sg10
I00
sg11
I-75000
sg12
S'bob.butts@enron.com'
p212
sg14
I175000
sg15
g5
sg16
F0.0
sg17
g5
sg18
F0.0
sg19
I150656
sg20
g5
sg21
F0.0
sg22
I750000
sg23
I417619
sg24
F0.0
sg25
F0.0
sg26
I417619
sg27
I261516
sg28
I1271582
sg29
I0
ssS'OLSON CINDY K'
p213
(dp214
g3
F1184.0
sg4
I77716
sg6
F0.016891891891891893
sg7
I3928320
sg8
I63791
sg9
F0.18336152812239703
sg10
I00
sg11
I0
sg12
S'cindy.olson@enron.com'
p215
sg14
I100000
sg15
g5
sg16
F856.0
sg17
g5
sg18
F52.0
sg19
I972
sg20
g5
sg21
F0.28846153846153844
sg22
I750000
sg23
I2606763
sg24
F20.0
sg25
F15.0
sg26
I969729
sg27
I329078
sg28
I1321557
sg29
I1637034
ssS'MCDONALD REBECCA'
p216
(dp217
g3
F894.0
sg4
g5
sg6
F0.06040268456375839
sg7
I1691366
sg8
g5
sg9
F0.19105062818182236
sg10
I00
sg11
I0
sg12
S'rebecca.mcdonald@enron.com'
p218
sg14
I0
sg15
g5
sg16
F720.0
sg17
g5
sg18
F13.0
sg19
g5
sg20
g5
sg21
F0.07692307692307693
sg22
I0
sg23
I1691366
sg24
F54.0
sg25
F1.0
sg26
I934065
sg27
I0
sg28
I0
sg29
I757301
ssS'CUMBERLAND MICHAEL S'
p219
(dp220
g3
F0.0
sg4
g5
sg6
F0.0
sg7
I1015896
sg8
I22344
sg9
F0.0
sg10
I00
sg11
I0
sg12
g5
sg14
I275000
sg15
g5
sg16
F0.0
sg17
g5
sg18
F0.0
sg19
I713
sg20
g5
sg21
F0.0
sg22
I325000
sg23
I207940
sg24
F0.0
sg25
F0.0
sg26
I207940
sg27
I184899
sg28
I807956
sg29
I0
ssS'GAHN ROBERT S'
p221
(dp222
g3
F0.0
sg4
I73122
sg6
F0.0
sg7
I1219192
sg8
I50080
sg9
F0.0
sg10
I00
sg11
I-1042
sg12
g5
sg14
I0
sg15
g5
sg16
F0.0
sg17
g5
sg18
F0.0
sg19
I76547
sg20
g5
sg21
F0.0
sg22
I509870
sg23
I318607
sg24
F0.0
sg25
F0.0
sg26
I235370
sg27
I192008
sg28
I900585
sg29
I83237
ssS'MCCLELLAN GEORGE'
p223
(dp224
g3
F1744.0
sg4
g5
sg6
F0.02981651376146789
sg7
I2266624
sg8
I228763
sg9
F0.29507665958895674
sg10
I00
sg11
I-125000
sg12
S'george.mcclellan@enron.com'
p225
sg14
I0
sg15
g5
sg16
F1469.0
sg17
g5
sg18
F49.0
sg19
I51587
sg20
g5
sg21
F0.0
sg22
I900000
sg23
I947861
sg24
F52.0
sg25
F0.0
sg26
I441096
sg27
I263413
sg28
I1318763
sg29
I506765
ssS'HERMANN ROBERT J'
p226
(dp227
g3
F0.0
sg4
g5
sg6
F0.0
sg7
I1965593
sg8
I48357
sg9
F0.0
sg10
I00
sg11
I-280000
sg12
S'robert.hermann@enron.com'
p228
sg14
I150000
sg15
g5
sg16
F0.0
sg17
g5
sg18
F0.0
sg19
I416441
sg20
g5
sg21
F0.0
sg22
I700000
sg23
I668132
sg24
F0.0
sg25
F0.0
sg26
I480632
sg27
I262663
sg28
I1297461
sg29
I187500
ssS'SCRIMSHAW MATTHEW'
p229
(dp230
g3
F0.0
sg4
g5
sg6
F0.0
sg7
I759557
sg8
g5
sg9
F0.0
sg10
I00
sg11
I0
sg12
S'matthew.scrimshaw@enron.com'
p231
sg14
I0
sg15
g5
sg16
F0.0
sg17
g5
sg18
F0.0
sg19
g5
sg20
g5
sg21
F0.0
sg22
I0
sg23
I759557
sg24
F0.0
sg25
F0.0
sg26
I0
sg27
I0
sg28
I0
sg29
I759557
ssS'GATHMANN WILLIAM D'
p232
(dp233
g3
F0.0
sg4
g5
sg6
F0.0
sg7
I1945360
sg8
g5
sg9
F0.0
sg10
I00
sg11
I0
sg12
g5
sg14
I0
sg15
I-72419
sg16
F0.0
sg17
g5
sg18
F0.0
sg19
g5
sg20
g5
sg21
F0.0
sg22
I0
sg23
I1945360
sg24
F0.0
sg25
F0.0
sg26
I264013
sg27
I0
sg28
I0
sg29
I1753766
ssS'HAEDICKE MARK E'
p234
(dp235
g3
F4009.0
sg4
I2157527
sg6
F0.04489897730107259
sg7
I4662159
sg8
I76169
sg9
F0.3750450457306632
sg10
I00
sg11
I-934484
sg12
S'mark.haedicke@enron.com'
p236
sg14
I983346
sg15
I-329825
sg16
F1847.0
sg17
g5
sg18
F1941.0
sg19
I52382
sg20
g5
sg21
F0.03142709943328181
sg22
I1150000
sg23
I803094
sg24
F180.0
sg25
F61.0
sg26
I524169
sg27
I374125
sg28
I3859065
sg29
I608750
ssS'BOWEN JR RAYMOND M'
p237
(dp238
g3
F1858.0
sg4
g5
sg6
F0.07534983853606028
sg7
I2921644
sg8
I65907
sg9
F0.3707628024562113
sg10
I01
sg11
I-833
sg12
S'raymond.bowen@enron.com'
p239
sg14
I974293
sg15
g5
sg16
F1593.0
sg17
g5
sg18
F27.0
sg19
I1621
sg20
g5
sg21
F0.5555555555555556
sg22
I1350000
sg23
I252055
sg24
F140.0
sg25
F15.0
sg26
I252055
sg27
I278601
sg28
I2669589
sg29
I0
ssS'GILLIS JOHN'
p240
(dp241
g3
F0.0
sg4
g5
sg6
F0.0
sg7
I85641
sg8
g5
sg9
F0.0
sg10
I00
sg11
I0
sg12
g5
sg14
I0
sg15
g5
sg16
F0.0
sg17
g5
sg18
F0.0
sg19
g5
sg20
g5
sg21
F0.0
sg22
I0
sg23
I85641
sg24
F0.0
sg25
F0.0
sg26
I75838
sg27
I0
sg28
I0
sg29
I9803
ssS'FITZGERALD JAY L'
p242
(dp243
g3
F936.0
sg4
g5
sg6
F0.0010683760683760685
sg7
I3036093
sg8
I23870
sg9
F0.14040831873412288
sg10
I00
sg11
I0
sg12
S'jay.fitzgerald@enron.com'
p244
sg14
I556416
sg15
g5
sg16
F723.0
sg17
g5
sg18
F16.0
sg19
I285414
sg20
g5
sg21
F0.5
sg22
I350000
sg23
I1621236
sg24
F1.0
sg25
F8.0
sg26
I956775
sg27
I199157
sg28
I1414857
sg29
I664461
ssS'MORAN MICHAEL P'
p245
(dp246
g3
F672.0
sg4
g5
sg6
F0.0
sg7
I221141
sg8
g5
sg9
F0.023003079152327476
sg10
I00
sg11
I0
sg12
S'michael.moran@enron.com'
p247
sg14
I0
sg15
g5
sg16
F127.0
sg17
g5
sg18
F19.0
sg19
g5
sg20
g5
sg21
F0.0
sg22
I0
sg23
I221141
sg24
F0.0
sg25
F0.0
sg26
I161602
sg27
I0
sg28
I0
sg29
I59539
ssS'REDMOND BRIAN L'
p248
(dp249
g3
F1671.0
sg4
g5
sg6
F0.12208258527827648
sg7
I8001853
sg8
I14689
sg9
F0.3262585140036141
sg10
I00
sg11
I0
sg12
S'brian.redmond@enron.com'
p250
sg14
I0
sg15
g5
sg16
F1063.0
sg17
g5
sg18
F221.0
sg19
g5
sg20
g5
sg21
F0.22171945701357465
sg22
I0
sg23
I7890324
sg24
F204.0
sg25
F49.0
sg26
I381285
sg27
I96840
sg28
I111529
sg29
I7509039
ssS'BAZELIDES PHILIP J'
p251
(dp252
g3
F0.0
sg4
I684694
sg6
F0.0
sg7
I2459777
sg8
g5
sg9
F0.0
sg10
I00
sg11
I0
sg12
g5
sg14
I93750
sg15
g5
sg16
F0.0
sg17
g5
sg18
F0.0
sg19
I874
sg20
g5
sg21
F0.0
sg22
I0
sg23
I1599641
sg24
F0.0
sg25
F0.0
sg26
I0
sg27
I80818
sg28
I860136
sg29
I1599641
ssS'BELDEN TIMOTHY N'
p253
(dp254
g3
F7991.0
sg4
I2144013
sg6
F0.028532098610937303
sg7
I6612335
sg8
I17355
sg9
F1.0396460176991151
sg10
I01
sg11
I-2334434
sg12
S'tim.belden@enron.com'
p255
sg14
I0
sg15
g5
sg16
F5521.0
sg17
g5
sg18
F484.0
sg19
I210698
sg20
g5
sg21
F0.2231404958677686
sg22
I5249999
sg23
I1110705
sg24
F228.0
sg25
F108.0
sg26
I157569
sg27
I213999
sg28
I5501630
sg29
I953136
ssS'DURAN WILLIAM D'
p256
(dp257
g3
F904.0
sg4
g5
sg6
F0.1172566371681416
sg7
I3734173
sg8
I25785
sg9
F0.22749047107945922
sg10
I00
sg11
I0
sg12
S'w.duran@enron.com'
p258
sg14
I1105218
sg15
g5
sg16
F599.0
sg17
g5
sg18
F12.0
sg19
I1568
sg20
g5
sg21
F0.25
sg22
I750000
sg23
I1640910
sg24
F106.0
sg25
F3.0
sg26
I189041
sg27
I210692
sg28
I2093263
sg29
I1451869
ssS'THORN TERENCE H'
p259
(dp260
g3
F266.0
sg4
I16586
sg6
F0.0
sg7
I5729249
sg8
I46145
sg9
F0.013222242347400832
sg10
I00
sg11
I0
sg12
S'terence.thorn@enron.com'
p261
sg14
I200000
sg15
g5
sg16
F73.0
sg17
g5
sg18
F41.0
sg19
I426629
sg20
g5
sg21
F0.0
sg22
I0
sg23
I4817796
sg24
F0.0
sg25
F0.0
sg26
I365320
sg27
I222093
sg28
I911453
sg29
I4452476
ssS'FASTOW ANDREW S'
p262
(dp263
g3
F0.0
sg4
g5
sg6
F0.0
sg7
I4218495
sg8
I55921
sg9
F0.0
sg10
I01
sg11
I-1386055
sg12
S'andrew.fastow@enron.com'
p264
sg14
I1736055
sg15
g5
sg16
F0.0
sg17
g5
sg18
F0.0
sg19
I277464
sg20
g5
sg21
F0.0
sg22
I1300000
sg23
I1794412
sg24
F0.0
sg25
F0.0
sg26
I1794412
sg27
I440698
sg28
I2424083
sg29
I0
ssS'FOY JOE'
p265
(dp266
g3
F57.0
sg4
I181755
sg6
F0.0
sg7
I525189
sg8
g5
sg9
F0.0003622532149972831
sg10
I00
sg11
I0
sg12
S'tracy.foy@enron.com'
p267
sg14
I0
sg15
g5
sg16
F2.0
sg17
g5
sg18
F13.0
sg19
g5
sg20
g5
sg21
F0.0
sg22
I0
sg23
I343434
sg24
F0.0
sg25
F0.0
sg26
I0
sg27
I0
sg28
I181755
sg29
I343434
ssS'CALGER CHRISTOPHER F'
p268
(dp269
g3
F2598.0
sg4
g5
sg6
F0.07659738260200154
sg7
I1765324
sg8
I35818
sg9
F0.4779972126847812
sg10
I01
sg11
I-262500
sg12
S'christopher.calger@enron.com'
p270
sg14
I375304
sg15
g5
sg16
F2188.0
sg17
g5
sg18
F144.0
sg19
I486
sg20
g5
sg21
F0.1736111111111111
sg22
I1250000
sg23
I126027
sg24
F199.0
sg25
F25.0
sg26
I126027
sg27
I240189
sg28
I1639297
sg29
I0
ssS'RICE KENNETH D'
p271
(dp272
g3
F905.0
sg4
g5
sg6
F0.04640883977900553
sg7
I23047589
sg8
I46950
sg9
F0.20633087533603106
sg10
I01
sg11
I-3504386
sg12
S'ken.rice@enron.com'
p273
sg14
I1617011
sg15
g5
sg16
F864.0
sg17
g5
sg18
F18.0
sg19
I174839
sg20
g5
sg21
F0.2222222222222222
sg22
I1750000
sg23
I22542539
sg24
F42.0
sg25
F4.0
sg26
I2748364
sg27
I420636
sg28
I505050
sg29
I19794175
ssS'KAMINSKI WINCENTY J'
p274
(dp275
g3
F4607.0
sg4
g5
sg6
F0.008899500759713479
sg7
I2062858
sg8
I83585
sg9
F0.11676940769212962
sg10
I00
sg11
I0
sg12
S'vince.kaminski@enron.com'
p276
sg14
I323466
sg15
g5
sg16
F583.0
sg17
g5
sg18
F14368.0
sg19
I4669
sg20
g5
sg21
F0.011901447661469933
sg22
I400000
sg23
I976037
sg24
F41.0
sg25
F171.0
sg26
I126027
sg27
I275101
sg28
I1086821
sg29
I850010
ssS'COX DAVID'
p277
(dp278
g3
F102.0
sg4
g5
sg6
F0.0
sg7
I1597026
sg8
I27861
sg9
F0.04248961876203318
sg10
I00
sg11
I-41250
sg12
S'chip.cox@enron.com'
p279
sg14
I0
sg15
g5
sg16
F71.0
sg17
g5
sg18
F33.0
sg19
I494
sg20
g5
sg21
F0.12121212121212122
sg22
I800000
sg23
I495633
sg24
F0.0
sg25
F4.0
sg26
I378082
sg27
I314288
sg28
I1101393
sg29
I117551
ssS'OVERDYKE JR JERE C'
p280
(dp281
g3
F0.0
sg4
g5
sg6
F0.0
sg7
I7557381
sg8
I18834
sg9
F0.0
sg10
I00
sg11
I0
sg12
S'jere.overdyke@enron.com'
p282
sg14
I135836
sg15
g5
sg16
F0.0
sg17
g5
sg18
F0.0
sg19
I176
sg20
g5
sg21
F0.0
sg22
I0
sg23
I7307594
sg24
F0.0
sg25
F0.0
sg26
I2041016
sg27
I94941
sg28
I249787
sg29
I5266578
ssS'PEREIRA PAULO V. FERRAZ'
p283
(dp284
g3
F0.0
sg4
g5
sg6
F0.0
sg7
I27942
sg8
I27942
sg9
F0.0
sg10
I00
sg11
I-101250
sg12
g5
sg14
I0
sg15
g5
sg16
F0.0
sg17
g5
sg18
F0.0
sg19
g5
sg20
I101250
sg21
F0.0
sg22
I0
sg23
I0
sg24
F0.0
sg25
F0.0
sg26
I0
sg27
I0
sg28
I27942
sg29
I0
ssS'STABLER FRANK'
p285
(dp286
g3
F0.0
sg4
g5
sg6
F0.0
sg7
I1623821
sg8
I16514
sg9
F0.0
sg10
I00
sg11
I0
sg12
S'frank.stabler@enron.com'
p287
sg14
I0
sg15
g5
sg16
F0.0
sg17
g5
sg18
F0.0
sg19
I356071
sg20
g5
sg21
F0.0
sg22
I500000
sg23
I511734
sg24
F0.0
sg25
F0.0
sg26
I511734
sg27
I239502
sg28
I1112087
sg29
I0
ssS'SKILLING JEFFREY K'
p288
(dp289
g3
F3627.0
sg4
g5
sg6
F0.0242624758753791
sg7
I34776388
sg8
I29336
sg9
F0.4014535713341805
sg10
I01
sg11
I0
sg12
S'jeff.skilling@enron.com'
p290
sg14
I1920000
sg15
g5
sg16
F2042.0
sg17
g5
sg18
F108.0
sg19
I22122
sg20
g5
sg21
F0.2777777777777778
sg22
I5600000
sg23
I26093672
sg24
F88.0
sg25
F30.0
sg26
I6843672
sg27
I1111258
sg28
I8682716
sg29
I19250000
ssS'BLAKE JR. NORMAN P'
p291
(dp292
g3
F0.0
sg4
g5
sg6
F0.0
sg7
I1279
sg8
I1279
sg9
F0.0
sg10
I00
sg11
I-113784
sg12
g5
sg14
I0
sg15
g5
sg16
F0.0
sg17
g5
sg18
F0.0
sg19
g5
sg20
I113784
sg21
F0.0
sg22
I0
sg23
I0
sg24
F0.0
sg25
F0.0
sg26
I0
sg27
I0
sg28
I1279
sg29
I0
ssS'SHERRICK JEFFREY B'
p293
(dp294
g3
F613.0
sg4
g5
sg6
F0.0636215334420881
sg7
I1832468
sg8
g5
sg9
F0.19493850496167667
sg10
I00
sg11
I0
sg12
S'jeffrey.sherrick@enron.com'
p295
sg14
I0
sg15
g5
sg16
F583.0
sg17
g5
sg18
F25.0
sg19
g5
sg20
g5
sg21
F0.72
sg22
I0
sg23
I1832468
sg24
F39.0
sg25
F18.0
sg26
I405999
sg27
I0
sg28
I0
sg29
I1426469
ssS'PRENTICE JAMES'
p296
(dp297
g3
F0.0
sg4
I564348
sg6
F0.0
sg7
I1659388
sg8
g5
sg9
F0.0
sg10
I00
sg11
I0
sg12
S'james.prentice@enron.com'
p298
sg14
I0
sg15
g5
sg16
F0.0
sg17
g5
sg18
F0.0
sg19
g5
sg20
g5
sg21
F0.0
sg22
I0
sg23
I1095040
sg24
F0.0
sg25
F0.0
sg26
I208809
sg27
I0
sg28
I564348
sg29
I886231
ssS'GRAY RODNEY'
p299
(dp300
g3
F0.0
sg4
I93585
sg6
F0.0
sg7
I1146658
sg8
g5
sg9
F0.0
sg10
I00
sg11
I0
sg12
g5
sg14
I365625
sg15
g5
sg16
F0.0
sg17
g5
sg18
F0.0
sg19
I680833
sg20
g5
sg21
F0.0
sg22
I0
sg23
I0
sg24
F0.0
sg25
F0.0
sg26
I0
sg27
I6615
sg28
I1146658
sg29
I0
ssS'PICKERING MARK R'
p301
(dp302
g3
F898.0
sg4
g5
sg6
F0.0077951002227171495
sg7
I1415488
sg8
I31653
sg9
F0.13911405626937376
sg10
I00
sg11
I0
sg12
S'mark.pickering@enron.com'
p303
sg14
I0
sg15
g5
sg16
F728.0
sg17
I400000
sg18
F67.0
sg19
g5
sg20
g5
sg21
F0.0
sg22
I300000
sg23
I28798
sg24
F7.0
sg25
F0.0
sg26
I0
sg27
I655037
sg28
I1386690
sg29
I28798
ssS'NOLES JAMES L'
p304
(dp305
g3
F0.0
sg4
I774401
sg6
F0.0
sg7
I1143106
sg8
g5
sg9
F0.0
sg10
I00
sg11
I0
sg12
g5
sg14
I0
sg15
I-94556
sg16
F0.0
sg17
g5
sg18
F0.0
sg19
g5
sg20
g5
sg21
F0.0
sg22
I0
sg23
I368705
sg24
F0.0
sg25
F0.0
sg26
I463261
sg27
I0
sg28
I774401
sg29
I0
ssS'KEAN STEVEN J'
p306
(dp307
g3
F12754.0
sg4
g5
sg6
F0.010976948408342482
sg7
I7901164
sg8
I41953
sg9
F0.6861273606225743
sg10
I00
sg11
I0
sg12
S'steven.kean@enron.com'
p308
sg14
I300000
sg15
g5
sg16
F3639.0
sg17
g5
sg18
F6759.0
sg19
I1231
sg20
g5
sg21
F0.05725699067909454
sg22
I1000000
sg23
I6153642
sg24
F140.0
sg25
F387.0
sg26
I4131594
sg27
I404338
sg28
I1747522
sg29
I2022048
ssS'FOWLER PEGGY'
p309
(dp310
g3
F517.0
sg4
g5
sg6
F0.0
sg7
I1884748
sg8
g5
sg9
F0.0018112660749864155
sg10
I00
sg11
I0
sg12
S'kulvinder.fowler@enron.com'
p311
sg14
I0
sg15
g5
sg16
F10.0
sg17
g5
sg18
F36.0
sg19
g5
sg20
g5
sg21
F0.0
sg22
I0
sg23
I1884748
sg24
F0.0
sg25
F0.0
sg26
I560170
sg27
I0
sg28
I0
sg29
I1324578
ssS'WASAFF GEORGE'
p312
(dp313
g3
F400.0
sg4
I831299
sg6
F0.055
sg7
I3090822
sg8
g5
sg9
F0.1284815271921585
sg10
I00
sg11
I-583325
sg12
S'george.wasaff@enron.com'
p314
sg14
I200000
sg15
g5
sg16
F337.0
sg17
g5
sg18
F30.0
sg19
I1425
sg20
g5
sg21
F0.23333333333333334
sg22
I325000
sg23
I2056427
sg24
F22.0
sg25
F7.0
sg26
I388167
sg27
I259996
sg28
I1034395
sg29
I1668260
ssS'WHITE JR THOMAS E'
p315
(dp316
g3
F0.0
sg4
g5
sg6
F0.0
sg7
I17078482
sg8
I81353
sg9
F0.0
sg10
I00
sg11
I0
sg12
S'thomas.white@enron.com'
p317
sg14
I0
sg15
g5
sg16
F0.0
sg17
g5
sg18
F0.0
sg19
I1085463
sg20
g5
sg21
F0.0
sg22
I450000
sg23
I15144123
sg24
F0.0
sg25
F0.0
sg26
I13847074
sg27
I317543
sg28
I1934359
sg29
I1297049
ssS'CHRISTODOULOU DIOMEDES'
p318
(dp319
g3
F0.0
sg4
g5
sg6
F0.0
sg7
I6077885
sg8
g5
sg9
F0.0
sg10
I00
sg11
I0
sg12
S'diomedes.christodoulou@enron.com'
p320
sg14
I0
sg15
g5
sg16
F0.0
sg17
g5
sg18
F0.0
sg19
g5
sg20
g5
sg21
F0.0
sg22
I0
sg23
I6077885
sg24
F0.0
sg25
F0.0
sg26
I950730
sg27
I0
sg28
I0
sg29
I5127155
ssS'ALLEN PHILLIP K'
p321
(dp322
g3
F2902.0
sg4
I2869717
sg6
F0.016195727084769126
sg7
I6213983
sg8
I13868
sg9
F0.27681884677609386
sg10
I00
sg11
I-3081055
sg12
S'phillip.allen@enron.com'
p323
sg14
I304805
sg15
I-126027
sg16
F1407.0
sg17
g5
sg18
F2195.0
sg19
I152
sg20
g5
sg21
F0.029612756264236904
sg22
I4175000
sg23
I1729541
sg24
F47.0
sg25
F65.0
sg26
I126027
sg27
I201955
sg28
I4484442
sg29
I1729541
ssS'SHARP VICTORIA T'
p324
(dp325
g3
F3136.0
sg4
I187469
sg6
F0.007653061224489796
sg7
I2070647
sg8
I116337
sg9
F0.45781931093061434
sg10
I00
sg11
I0
sg12
S'vicki.sharp@enron.com'
p326
sg14
I422158
sg15
g5
sg16
F2477.0
sg17
g5
sg18
F136.0
sg19
I2401
sg20
g5
sg21
F0.04411764705882353
sg22
I600000
sg23
I494136
sg24
F24.0
sg25
F6.0
sg26
I213063
sg27
I248146
sg28
I1576511
sg29
I281073
ssS'JAEDICKE ROBERT'
p327
(dp328
g3
F0.0
sg4
g5
sg6
F0.0
sg7
I515500
sg8
g5
sg9
F0.0
sg10
I00
sg11
I-25000
sg12
g5
sg14
I0
sg15
I-44093
sg16
F0.0
sg17
g5
sg18
F0.0
sg19
g5
sg20
I108750
sg21
F0.0
sg22
I0
sg23
I431750
sg24
F0.0
sg25
F0.0
sg26
I44093
sg27
I0
sg28
I83750
sg29
I431750
ssS'WINOKUR JR. HERBERT S'
p329
(dp330
g3
F0.0
sg4
g5
sg6
F0.0
sg7
I84992
sg8
I1413
sg9
F0.0
sg10
I00
sg11
I-25000
sg12
g5
sg14
I0
sg15
g5
sg16
F0.0
sg17
g5
sg18
F0.0
sg19
g5
sg20
I108579
sg21
F0.0
sg22
I0
sg23
I0
sg24
F0.0
sg25
F0.0
sg26
I0
sg27
I0
sg28
I84992
sg29
I0
ssS'BROWN MICHAEL'
p331
(dp332
g3
F1486.0
sg4
g5
sg6
F0.008748317631224764
sg7
I49288
sg8
I49288
sg9
F0.1470056521702514
sg10
I00
sg11
I0
sg12
S'michael.brown@enron.com'
p333
sg14
I0
sg15
g5
sg16
F761.0
sg17
g5
sg18
F41.0
sg19
g5
sg20
g5
sg21
F0.024390243902439025
sg22
I0
sg23
I0
sg24
F13.0
sg25
F1.0
sg26
I0
sg27
I0
sg28
I49288
sg29
I0
ssS'BADUM JAMES P'
p334
(dp335
g3
F0.0
sg4
I178980
sg6
F0.0
sg7
I440283
sg8
I3486
sg9
F0.0
sg10
I00
sg11
I0
sg12
g5
sg14
I0
sg15
g5
sg16
F0.0
sg17
g5
sg18
F0.0
sg19
g5
sg20
g5
sg21
F0.0
sg22
I0
sg23
I257817
sg24
F0.0
sg25
F0.0
sg26
I0
sg27
I0
sg28
I182466
sg29
I257817
ssS'HUGHES JAMES A'
p336
(dp337
g3
F719.0
sg4
g5
sg6
F0.048678720445062586
sg7
I1118394
sg8
g5
sg9
F0.15980442175029883
sg10
I00
sg11
I0
sg12
S'james.hughes@enron.com'
p338
sg14
I0
sg15
g5
sg16
F589.0
sg17
g5
sg18
F34.0
sg19
g5
sg20
g5
sg21
F0.14705882352941177
sg22
I0
sg23
I1118394
sg24
F35.0
sg25
F5.0
sg26
I363428
sg27
I0
sg28
I0
sg29
I754966
ssS'REYNOLDS LAWRENCE'
p339
(dp340
g3
F0.0
sg4
I51365
sg6
F0.0
sg7
I4616366
sg8
I8409
sg9
F0.0
sg10
I00
sg11
I-200000
sg12
g5
sg14
I156250
sg15
I-140264
sg16
F0.0
sg17
g5
sg18
F0.0
sg19
I202052
sg20
g5
sg21
F0.0
sg22
I100000
sg23
I4221891
sg24
F0.0
sg25
F0.0
sg26
I201483
sg27
I76399
sg28
I394475
sg29
I4160672
ssS'DIMICHELE RICHARD G'
p341
(dp342
g3
F0.0
sg4
g5
sg6
F0.0
sg7
I10685933
sg8
I35812
sg9
F0.0
sg10
I00
sg11
I0
sg12
S'richard.dimichele@enron.com'
p343
sg14
I694862
sg15
g5
sg16
F0.0
sg17
g5
sg18
F0.0
sg19
I374689
sg20
g5
sg21
F0.0
sg22
I1000000
sg23
I8317782
sg24
F0.0
sg25
F0.0
sg26
I126027
sg27
I262788
sg28
I2368151
sg29
I8191755
ssS'BHATNAGAR SANJAY'
p344
(dp345
g3
F523.0
sg4
g5
sg6
F0.0
sg7
I15456290
sg8
g5
sg9
F0.08567321347476958
sg10
I00
sg11
I0
sg12
S'sanjay.bhatnagar@enron.com'
p346
sg14
I0
sg15
I15456290
sg16
F463.0
sg17
g5
sg18
F29.0
sg19
I137864
sg20
I137864
sg21
F0.034482758620689655
sg22
I0
sS'total_stock_value'
p347
I0
sg24
F0.0
sg25
F1.0
sg26
I-2604490
sg27
I0
sg28
I15456290
sg29
I2604490
ssS'CARTER REBECCA C'
p348
(dp349
g3
F312.0
sg4
g5
sg6
F0.09294871794871795
sg7
I477557
sg8
g5
sg9
F0.1455925581889998
sg10
I00
sg11
I-159792
sg12
S'rebecca.carter@enron.com'
p350
sg14
I75000
sg15
I-307301
sg16
F196.0
sg17
g5
sg18
F15.0
sg19
I540
sg20
g5
sg21
F0.4666666666666667
sg22
I300000
sg23
I0
sg24
F29.0
sg25
F7.0
sg26
I307301
sg27
I261809
sg28
I477557
sg29
I0
ssS'BUCHANAN HAROLD G'
p351
(dp352
g3
F1088.0
sg4
g5
sg6
F0.0
sg7
I2069142
sg8
I600
sg9
F0.004165911972468755
sg10
I00
sg11
I0
sg12
S'john.buchanan@enron.com'
p353
sg14
I304805
sg15
g5
sg16
F23.0
sg17
g5
sg18
F125.0
sg19
I1215
sg20
g5
sg21
F0.0
sg22
I500000
sg23
I1014505
sg24
F0.0
sg25
F0.0
sg26
I189041
sg27
I248017
sg28
I1054637
sg29
I825464
ssS'YEAP SOON'
p354
(dp355
g3
F0.0
sg4
g5
sg6
F0.0
sg7
I247855
sg8
I55097
sg9
F0.0
sg10
I00
sg11
I0
sg12
g5
sg14
I0
sg15
g5
sg16
F0.0
sg17
g5
sg18
F0.0
sg19
g5
sg20
g5
sg21
F0.0
sg22
I0
sg23
I192758
sg24
F0.0
sg25
F0.0
sg26
I0
sg27
I0
sg28
I55097
sg29
I192758
ssS'MURRAY JULIA H'
p356
(dp357
g3
F2192.0
sg4
g5
sg6
F0.005018248175182482
sg7
I1409655
sg8
I57580
sg9
F0.07735636445458746
sg10
I00
sg11
I0
sg12
S'julia.murray@enron.com'
p358
sg14
I125000
sg15
g5
sg16
F395.0
sg17
g5
sg18
F45.0
sg19
I330
sg20
g5
sg21
F0.044444444444444446
sg22
I400000
sg23
I597461
sg24
F11.0
sg25
F2.0
sg26
I196983
sg27
I229284
sg28
I812194
sg29
I400478
ssS'GARLAND C KEVIN'
p359
(dp360
g3
F209.0
sg4
g5
sg6
F0.04784688995215311
sg7
I2462622
sg8
I48405
sg9
F0.17848559542329573
sg10
I00
sg11
I0
sg12
S'kevin.garland@enron.com'
p361
sg14
I375304
sg15
g5
sg16
F178.0
sg17
g5
sg18
F44.0
sg19
I60814
sg20
g5
sg21
F0.6136363636363636
sg22
I850000
sg23
I896153
sg24
F10.0
sg25
F27.0
sg26
I259907
sg27
I231946
sg28
I1566469
sg29
I636246
ssS'DODSON KEITH'
p362
(dp363
g3
F176.0
sg4
g5
sg6
F0.056818181818181816
sg7
I319941
sg8
I28164
sg9
F0.08906948588642409
sg10
I00
sg11
I0
sg12
S'keith.dodson@enron.com'
p364
sg14
I0
sg15
g5
sg16
F114.0
sg17
g5
sg18
F14.0
sg19
I774
sg20
g5
sg21
F0.21428571428571427
sg22
I70000
sg23
I0
sg24
F10.0
sg25
F3.0
sg26
I0
sg27
I221003
sg28
I319941
sg29
I0
ssS'YEAGER F SCOTT'
p365
(dp366
g3
F0.0
sg4
g5
sg6
F0.0
sg7
I12245058
sg8
I53947
sg9
F0.0
sg10
I01
sg11
I0
sg12
S'scott.yeager@enron.com'
p367
sg14
I0
sg15
g5
sg16
F0.0
sg17
g5
sg18
F0.0
sg19
I147950
sg20
g5
sg21
F0.0
sg22
I0
sg23
I11884758
sg24
F0.0
sg25
F0.0
sg26
I3576206
sg27
I158403
sg28
I360300
sg29
I8308552
ssS'HIRKO JOSEPH'
p368
(dp369
g3
F0.0
sg4
I10259
sg6
F0.0
sg7
I30857157
sg8
I77978
sg9
F0.0
sg10
I01
sg11
I0
sg12
S'joe.hirko@enron.com'
p370
sg14
I0
sg15
g5
sg16
F0.0
sg17
g5
sg18
F0.0
sg19
I2856
sg20
g5
sg21
F0.0
sg22
I0
sg23
I30766064
sg24
F0.0
sg25
F0.0
sg26
I0
sg27
I0
sg28
I91093
sg29
I30766064
ssS'DIETRICH JANET R'
p371
(dp372
g3
F2572.0
sg4
g5
sg6
F0.11858475894245724
sg7
I3275551
sg8
I3475
sg9
F0.4655654260582417
sg10
I00
sg11
I0
sg12
S'janet.dietrich@enron.com'
p373
sg14
I556416
sg15
g5
sg16
F1902.0
sg17
g5
sg18
F63.0
sg19
I473
sg20
g5
sg21
F0.2222222222222222
sg22
I600000
sg23
I1865087
sg24
F305.0
sg25
F14.0
sg26
I315068
sg27
I250100
sg28
I1410464
sg29
I1550019
ssS'DERRICK JR. JAMES V'
p374
(dp375
g3
F2181.0
sg4
g5
sg6
F0.029344337459880788
sg7
I9382894
sg8
I51124
sg9
F0.2809428431250143
sg10
I00
sg11
I-1284000
sg12
S'james.derrick@enron.com'
p376
sg14
I484000
sg15
I-1787380
sg16
F1401.0
sg17
g5
sg18
F909.0
sg19
I7482
sg20
g5
sg21
F0.022002200220022004
sg22
I800000
sg23
I8831913
sg24
F64.0
sg25
F20.0
sg26
I1787380
sg27
I492375
sg28
I550981
sg29
I8831913
ssS'FREVERT MARK A'
p377
(dp378
g3
F3275.0
sg4
I6426990
sg6
F0.07389312977099237
sg7
I31874715
sg8
I86987
sg9
F0.6148188821850551
sg10
I00
sg11
I-3367011
sg12
S'mark.frevert@enron.com'
p379
sg14
I1617011
sg15
g5
sg16
F2979.0
sg17
I2000000
sg18
F21.0
sg19
I7427621
sg20
g5
sg21
F0.2857142857142857
sg22
I2000000
sg23
I14622185
sg24
F242.0
sg25
F6.0
sg26
I4188667
sg27
I1060932
sg28
I17252530
sg29
I10433518
ssS'PAI LOU L'
p380
(dp381
g3
F0.0
sg4
g5
sg6
F0.0
sg7
I26941313
sg8
I32047
sg9
F0.0
sg10
I00
sg11
I0
sg12
S'lou.pai@enron.com'
p382
sg14
I0
sg15
g5
sg16
F0.0
sg17
g5
sg18
F0.0
sg19
I1829457
sg20
g5
sg21
F0.0
sg22
I1000000
sg23
I23817930
sg24
F0.0
sg25
F0.0
sg26
I8453763
sg27
I261879
sg28
I3123383
sg29
I15364167
ssS'BAY FRANKLIN R'
p383
(dp384
g3
F0.0
sg4
I260455
sg6
F0.0
sg7
I890710
sg8
I129142
sg9
F0.0
sg10
I00
sg11
I-201641
sg12
S'frank.bay@enron.com'
p385
sg14
I0
sg15
I-82782
sg16
F0.0
sg17
g5
sg18
F0.0
sg19
I69
sg20
g5
sg21
F0.0
sg22
I400000
sg23
I63014
sg24
F0.0
sg25
F0.0
sg26
I145796
sg27
I239671
sg28
I827696
sg29
I0
ssS'HAYSLETT RODERICK J'
p386
(dp387
g3
F2649.0
sg4
g5
sg6
F0.01321253303133258
sg7
I346663
sg8
g5
sg9
F0.12309984274695343
sg10
I00
sg11
I0
sg12
S'rod.hayslett@enron.com'
p388
sg14
I0
sg15
g5
sg16
F571.0
sg17
g5
sg18
F1061.0
sg19
g5
sg20
g5
sg21
F0.03581526861451461
sg22
I0
sg23
I346663
sg24
F35.0
sg25
F38.0
sg26
I346663
sg27
I0
sg28
I0
sg29
I0
ssS'FUGH JOHN L'
p389
(dp390
g3
F0.0
sg4
I50591
sg6
F0.0
sg7
I226969
sg8
g5
sg9
F0.0
sg10
I00
sg11
I0
sg12
g5
sg14
I0
sg15
g5
sg16
F0.0
sg17
g5
sg18
F0.0
sg19
g5
sg20
g5
sg21
F0.0
sg22
I0
sg23
I176378
sg24
F0.0
sg25
F0.0
sg26
I0
sg27
I0
sg28
I50591
sg29
I176378
ssS'FALLON JAMES B'
p391
(dp392
g3
F1755.0
sg4
g5
sg6
F0.023931623931623933
sg7
I6008739
sg8
I95924
sg9
F0.33369647733492486
sg10
I00
sg11
I0
sg12
S'jim.fallon@enron.com'
p393
sg14
I374347
sg15
g5
sg16
F1604.0
sg17
g5
sg18
F75.0
sg19
I401481
sg20
g5
sg21
F0.49333333333333335
sg22
I2500000
sg23
I2332399
sg24
F42.0
sg25
F37.0
sg26
I1392142
sg27
I304588
sg28
I3676340
sg29
I940257
ssS'KOENIG MARK E'
p394
(dp395
g3
F2374.0
sg4
g5
sg6
F0.02232518955349621
sg7
I3507476
sg8
I127017
sg9
F0.4392646036581624
sg10
I01
sg11
I0
sg12
S'mark.koenig@enron.com'
p396
sg14
I300000
sg15
g5
sg16
F2271.0
sg17
g5
sg18
F61.0
sg19
I150458
sg20
g5
sg21
F0.2459016393442623
sg22
I700000
sg23
I1920055
sg24
F53.0
sg25
F15.0
sg26
I1248318
sg27
I309946
sg28
I1587421
sg29
I671737
ssS'SAVAGE FRANK'
p397
(dp398
g3
F0.0
sg4
g5
sg6
F0.0
sg7
I3750
sg8
g5
sg9
F0.0
sg10
I00
sg11
I-121284
sg12
g5
sg14
I0
sg15
g5
sg16
F0.0
sg17
g5
sg18
F0.0
sg19
g5
sg20
I125034
sg21
F0.0
sg22
I0
sg23
I0
sg24
F0.0
sg25
F0.0
sg26
I0
sg27
I0
sg28
I3750
sg29
I0
ssS'IZZO LAWRENCE L'
p399
(dp400
g3
F496.0
sg4
g5
sg6
F0.056451612903225805
sg7
I7799576
sg8
I28093
sg9
F0.14322999737981898
sg10
I00
sg11
I0
sg12
S'larry.izzo@enron.com'
p401
sg14
I312500
sg15
g5
sg16
F437.0
sg17
g5
sg18
F19.0
sg19
I1553729
sg20
g5
sg21
F0.2631578947368421
sg22
I0
sg23
I5819980
sg24
F28.0
sg25
F5.0
sg26
I3654808
sg27
I85274
sg28
I1979596
sg29
I2165172
ssS'TILNEY ELIZABETH A'
p402
(dp403
g3
F460.0
sg4
g5
sg6
F0.021739130434782608
sg7
I1567435
sg8
g5
sg9
F0.11248832035889539
sg10
I00
sg11
I-575000
sg12
S'elizabeth.tilney@enron.com'
p404
sg14
I275000
sg15
g5
sg16
F379.0
sg17
g5
sg18
F19.0
sg19
I152055
sg20
g5
sg21
F0.5789473684210527
sg22
I300000
sg23
I1168042
sg24
F10.0
sg25
F11.0
sg26
I576792
sg27
I247338
sg28
I399393
sg29
I591250
ssS'MARTIN AMANDA K'
p405
(dp406
g3
F1522.0
sg4
I85430
sg6
F0.005256241787122208
sg7
I10477322
sg8
I8211
sg9
F0.09096360182251412
sg10
I00
sg11
I0
sg12
S'a..martin@enron.com'
p407
sg14
I5145434
sg15
g5
sg16
F477.0
sg17
g5
sg18
F230.0
sg19
I2818454
sg20
g5
sg21
F0.0
sg22
I0
sg23
I2070306
sg24
F8.0
sg25
F0.0
sg26
I0
sg27
I349487
sg28
I8407016
sg29
I2070306
ssS'BUY RICHARD B'
p408
(dp409
g3
F3523.0
sg4
I649584
sg6
F0.04428044280442804
sg7
I5800172
sg8
g5
sg9
F0.4721750186509741
sg10
I00
sg11
I-694862
sg12
S'rick.buy@enron.com'
p410
sg14
I769862
sg15
g5
sg16
F2333.0
sg17
g5
sg18
F1053.0
sg19
I400572
sg20
g5
sg21
F0.06742640075973409
sg22
I900000
sg23
I3444470
sg24
F156.0
sg25
F71.0
sg26
I901657
sg27
I330546
sg28
I2355702
sg29
I2542813
ssS'GRAMM WENDY L'
p411
(dp412
g3
F0.0
sg4
g5
sg6
F0.0
sg7
I119292
sg8
g5
sg9
F0.0
sg10
I00
sg11
I0
sg12
g5
sg14
I0
sg15
g5
sg16
F0.0
sg17
g5
sg18
F0.0
sg19
g5
sg20
I119292
sg21
F0.0
sg22
I0
sg23
I0
sg24
F0.0
sg25
F0.0
sg26
I0
sg27
I0
sg28
I119292
sg29
I0
ssS'CAUSEY RICHARD A'
p413
(dp414
g3
F1892.0
sg4
g5
sg6
F0.0306553911205074
sg7
I4370821
sg8
I30674
sg9
F0.32314955748091617
sg10
I01
sg11
I-235000
sg12
S'richard.causey@enron.com'
p415
sg14
I350000
sg15
g5
sg16
F1585.0
sg17
g5
sg18
F49.0
sg19
I307895
sg20
g5
sg21
F0.24489795918367346
sg22
I1000000
sg23
I2502063
sg24
F58.0
sg25
F12.0
sg26
I2502063
sg27
I415189
sg28
I1868758
sg29
I0
ssS'TAYLOR MITCHELL S'
p416
(dp417
g3
F533.0
sg4
I227449
sg6
F0.0
sg7
I4837711
sg8
g5
sg9
F0.054337982249592465
sg10
I00
sg11
I0
sg12
S'mitchell.taylor@enron.com'
p418
sg14
I0
sg15
g5
sg16
F300.0
sg17
g5
sg18
F29.0
sg19
g5
sg20
g5
sg21
F0.0
sg22
I600000
sg23
I3745048
sg24
F0.0
sg25
F0.0
sg26
I563798
sg27
I265214
sg28
I1092663
sg29
I3181250
ssS'DONAHUE JR JEFFREY M'
p419
(dp420
g3
F865.0
sg4
g5
sg6
F0.21734104046242775
sg7
I1956748
sg8
I96268
sg9
F0.3641814884523109
sg10
I00
sg11
I-300000
sg12
S'jeff.donahue@enron.com'
p421
sg14
I0
sg15
g5
sg16
F772.0
sg17
g5
sg18
F22.0
sg19
I891
sg20
g5
sg21
F0.5
sg22
I800000
sg23
I1080988
sg24
F188.0
sg25
F11.0
sg26
I315068
sg27
I278601
sg28
I875760
sg29
I765920
ssS'GLISAN JR BEN F'
p422
(dp423
g3
F873.0
sg4
g5
sg6
F0.05956471935853379
sg7
I2050830
sg8
I125978
sg9
F0.22354649972321655
sg10
I01
sg11
I0
sg12
S'ben.glisan@enron.com'
p424
sg14
I71023
sg15
g5
sg16
F874.0
sg17
g5
sg18
F16.0
sg19
I200308
sg20
g5
sg21
F0.375
sg22
I600000
sg23
I778546
sg24
F52.0
sg25
F6.0
sg26
I393818
sg27
I274975
sg28
I1272284
sg29
I384728
ss.